; Function Attrs: nounwind uwtable
define i32 @prte_prepend_attribute(ptr noundef %0, i16 noundef zeroext %1, i1 noundef zeroext %2, ptr noundef %3, i16 noundef zeroext %4) local_unnamed_addr #0 {
  %6 = zext i1 %2 to i8
  %7 = load i64, ptr getelementptr inbounds nuw (i8, ptr @prte_attribute_t_class, i64 56), align 8, !tbaa !48
  %8 = tail call noalias noundef ptr @malloc(i64 noundef %7) #14
  %9 = load i32, ptr @pmix_class_init_epoch, align 4, !tbaa !40
  %10 = load i32, ptr getelementptr inbounds nuw (i8, ptr @prte_attribute_t_class, i64 32), align 8, !tbaa !49
  %.not.i = icmp eq i32 %9, %10
  br i1 %.not.i, label %12, label %11

11:                                               ; preds = %5
  tail call void @pmix_class_initialize(ptr noundef nonnull @prte_attribute_t_class) #13
  br label %12

12:                                               ; preds = %11, %5
  %.not22.i = icmp eq ptr %8, null
  br i1 %.not22.i, label %pmix_obj_new_tma.exit, label %13

13:                                               ; preds = %12
  %14 = tail call i32 @pthread_mutex_init(ptr noundef nonnull %8, ptr noundef null) #13
  %15 = getelementptr inbounds nuw i8, ptr %8, i64 40
  store ptr @prte_attribute_t_class, ptr %15, align 8, !tbaa !42
  %16 = getelementptr inbounds nuw i8, ptr %8, i64 48
  store i32 1, ptr %16, align 8, !tbaa !41
  %17 = getelementptr inbounds nuw i8, ptr %8, i64 56
  %18 = getelementptr inbounds nuw i8, ptr %8, i64 96
  tail call void @llvm.memset.p0.i64(ptr noundef nonnull align 8 dereferenceable(32) %17, i8 0, i64 32, i1 false)
  tail call void @llvm.memset.p0.i64(ptr noundef nonnull align 8 dereferenceable(24) %18, i8 0, i64 24, i1 false)
  %19 = load ptr, ptr getelementptr inbounds nuw (i8, ptr @prte_attribute_t_class, i64 40), align 8, !tbaa !50
  %20 = load ptr, ptr %19, align 8, !tbaa !23
  %.not6.i.i = icmp eq ptr %20, null
  br i1 %.not6.i.i, label %pmix_obj_new_tma.exit, label %.lr.ph.i.i

.lr.ph.i.i:                                       ; preds = %13, %.lr.ph.i.i
  %21 = phi ptr [ %23, %.lr.ph.i.i ], [ %20, %13 ]
  %.07.i.i = phi ptr [ %22, %.lr.ph.i.i ], [ %19, %13 ]
  tail call void %21(ptr noundef nonnull %8) #13
  %22 = getelementptr inbounds nuw i8, ptr %.07.i.i, i64 8
  %23 = load ptr, ptr %22, align 8, !tbaa !23
  %.not.i.i = icmp eq ptr %23, null
  br i1 %.not.i.i, label %pmix_obj_new_tma.exit, label %.lr.ph.i.i, !llvm.loop !51

pmix_obj_new_tma.exit:                            ; preds = %.lr.ph.i.i, %12, %13
  %24 = getelementptr inbounds nuw i8, ptr %8, i64 144
  store i16 %1, ptr %24, align 8, !tbaa !13
  %25 = getelementptr inbounds nuw i8, ptr %8, i64 146
  store i8 %6, ptr %25, align 2, !tbaa !52
  %26 = tail call i32 @prte_attr_load(ptr noundef %8, ptr noundef %3, i16 noundef zeroext %4)
  %.not = icmp eq i32 %26, 0
  br i1 %.not, label %51, label %27

27:                                               ; preds = %pmix_obj_new_tma.exit
  %28 = tail call i32 @pthread_mutex_lock(ptr noundef nonnull %8) #13
  %29 = icmp eq i32 %28, 35
  br i1 %29, label %30, label %pmix_obj_update.exit

30:                                               ; preds = %27
  %31 = tail call ptr @__errno_location() #15
  store i32 35, ptr %31, align 4, !tbaa !40
  tail call void @perror(ptr noundef nonnull @.str.193) #16
  tail call void @abort() #17
  unreachable

pmix_obj_update.exit:                             ; preds = %27
  %32 = getelementptr inbounds nuw i8, ptr %8, i64 48
  %33 = load i32, ptr %32, align 8, !tbaa !41
  %34 = add nsw i32 %33, -1
  store i32 %34, ptr %32, align 8, !tbaa !41
  %35 = tail call i32 @pthread_mutex_unlock(ptr noundef nonnull %8) #13
  %36 = icmp eq i32 %34, 0
  br i1 %36, label %37, label %61

37:                                               ; preds = %pmix_obj_update.exit
  %38 = getelementptr inbounds nuw i8, ptr %8, i64 40
  %39 = load ptr, ptr %38, align 8, !tbaa !42
  %40 = getelementptr inbounds nuw i8, ptr %39, i64 48
  %41 = load ptr, ptr %40, align 8, !tbaa !43
  %42 = load ptr, ptr %41, align 8, !tbaa !23
  %.not6.i = icmp eq ptr %42, null
  br i1 %.not6.i, label %pmix_obj_run_destructors.exit, label %.lr.ph.i

.lr.ph.i:                                         ; preds = %37, %.lr.ph.i
  %43 = phi ptr [ %45, %.lr.ph.i ], [ %42, %37 ]
  %.07.i = phi ptr [ %44, %.lr.ph.i ], [ %41, %37 ]
  tail call void %43(ptr noundef nonnull %8) #13
  %44 = getelementptr inbounds nuw i8, ptr %.07.i, i64 8
  %45 = load ptr, ptr %44, align 8, !tbaa !23
  %.not.i19 = icmp eq ptr %45, null
  br i1 %.not.i19, label %pmix_obj_run_destructors.exit, label %.lr.ph.i, !llvm.loop !45

pmix_obj_run_destructors.exit:                    ; preds = %.lr.ph.i, %37
  %46 = getelementptr inbounds nuw i8, ptr %8, i64 96
  %47 = load ptr, ptr %46, align 8, !tbaa !46
  %.not18 = icmp eq ptr %47, null
  br i1 %.not18, label %50, label %48

48:                                               ; preds = %pmix_obj_run_destructors.exit
  %49 = getelementptr inbounds nuw i8, ptr %8, i64 56
  tail call void %47(ptr noundef nonnull %49, ptr noundef nonnull %8) #13
  br label %61

50:                                               ; preds = %pmix_obj_run_destructors.exit
  tail call void @free(ptr noundef nonnull %8) #13
  br label %61

51:                                               ; preds = %pmix_obj_new_tma.exit
  %52 = getelementptr inbounds nuw i8, ptr %0, i64 120
  %53 = getelementptr inbounds nuw i8, ptr %0, i64 240
  %54 = load ptr, ptr %53, align 8, !tbaa !3
  %55 = getelementptr inbounds nuw i8, ptr %8, i64 120
  store ptr %54, ptr %55, align 8, !tbaa !3
  %56 = getelementptr inbounds nuw i8, ptr %8, i64 128
  store ptr %52, ptr %56, align 8, !tbaa !37
  %57 = getelementptr inbounds nuw i8, ptr %54, i64 128
  store volatile ptr %8, ptr %57, align 8, !tbaa !37
  store ptr %8, ptr %53, align 8, !tbaa !3
  %58 = getelementptr inbounds nuw i8, ptr %0, i64 264
  %59 = load volatile i64, ptr %58, align 8, !tbaa !38
  %60 = add i64 %59, 1
  store volatile i64 %60, ptr %58, align 8, !tbaa !38
  br label %61

61:                                               ; preds = %pmix_obj_update.exit, %50, %48, %51
  ret i32 %26
}